target datalayout = "e-m:e-p270:32:32-p271:32:32-p272:64:64-i64:64-i128:128-f80:128-n8:16:32:64-S128"
target triple = "x86_64-pc-linux-gnu"

; Function Attrs: mustprogress uwtable
define noundef float @_Z27xdr_xtc_get_last_frame_timeP8_IO_FILEP3XDRiPb(ptr noundef %0, ptr noundef %1, i32 noundef %2, ptr noundef %3) #0 {
  %5 = alloca float, align 4
  %6 = alloca ptr, align 8
  %7 = alloca ptr, align 8
  %8 = alloca i32, align 4
  %9 = alloca ptr, align 8
  %10 = alloca float, align 4
  %11 = alloca i64, align 8
  %12 = alloca i32, align 4
  store ptr %0, ptr %6, align 8, !tbaa !31
  store ptr %1, ptr %7, align 8, !tbaa !17
  store i32 %2, ptr %8, align 4, !tbaa !13
  store ptr %3, ptr %9, align 8, !tbaa !78
  call void @llvm.lifetime.start.p0(i64 4, ptr %10) #11
  call void @llvm.lifetime.start.p0(i64 8, ptr %11) #11
  %13 = load ptr, ptr %9, align 8, !tbaa !78
  store i8 1, ptr %13, align 1, !tbaa !29
  %14 = load ptr, ptr %6, align 8, !tbaa !31
  %15 = call noundef i64 @_Z9gmx_ftellP8_IO_FILE(ptr noundef %14)
  store i64 %15, ptr %11, align 8, !tbaa !23
  %16 = load i64, ptr %11, align 8, !tbaa !23
  %17 = icmp slt i64 %16, 0
  br i1 %17, label %18, label %20

18:                                               ; preds = %4
  %19 = load ptr, ptr %9, align 8, !tbaa !78
  store i8 0, ptr %19, align 1, !tbaa !29
  store float -1.000000e+00, ptr %5, align 4
  store i32 1, ptr %12, align 4
  br label %45

20:                                               ; preds = %4
  %21 = load ptr, ptr %6, align 8, !tbaa !31
  %22 = call noundef i32 @_Z9gmx_fseekP8_IO_FILEli(ptr noundef %21, i64 noundef -12, i32 noundef 2)
  %23 = icmp ne i32 %22, 0
  br i1 %23, label %24, label %26

24:                                               ; preds = %20
  %25 = load ptr, ptr %9, align 8, !tbaa !78
  store i8 0, ptr %25, align 1, !tbaa !29
  store float -1.000000e+00, ptr %5, align 4
  store i32 1, ptr %12, align 4
  br label %45

26:                                               ; preds = %20
  %27 = load ptr, ptr %6, align 8, !tbaa !31
  %28 = load ptr, ptr %7, align 8, !tbaa !17
  %29 = load i32, ptr %8, align 4, !tbaa !13
  %30 = load ptr, ptr %9, align 8, !tbaa !78
  %31 = call noundef float @_ZL26xtc_get_current_frame_timeP8_IO_FILEP3XDRiPb(ptr noundef %27, ptr noundef %28, i32 noundef %29, ptr noundef %30)
  store float %31, ptr %10, align 4, !tbaa !15
  %32 = load ptr, ptr %9, align 8, !tbaa !78
  %33 = load i8, ptr %32, align 1, !tbaa !29, !range !35, !noundef !36
  %34 = trunc i8 %33 to i1
  br i1 %34, label %36, label %35

35:                                               ; preds = %26
  store float -1.000000e+00, ptr %5, align 4
  store i32 1, ptr %12, align 4
  br label %45

36:                                               ; preds = %26
  %37 = load ptr, ptr %6, align 8, !tbaa !31
  %38 = load i64, ptr %11, align 8, !tbaa !23
  %39 = call noundef i32 @_Z9gmx_fseekP8_IO_FILEli(ptr noundef %37, i64 noundef %38, i32 noundef 0)
  %40 = icmp ne i32 %39, 0
  br i1 %40, label %41, label %43

41:                                               ; preds = %36
  %42 = load ptr, ptr %9, align 8, !tbaa !78
  store i8 0, ptr %42, align 1, !tbaa !29
  store float -1.000000e+00, ptr %5, align 4
  store i32 1, ptr %12, align 4
  br label %45

43:                                               ; preds = %36
  %44 = load float, ptr %10, align 4, !tbaa !15
  store float %44, ptr %5, align 4
  store i32 1, ptr %12, align 4
  br label %45

45:                                               ; preds = %43, %41, %35, %24, %18
  call void @llvm.lifetime.end.p0(i64 8, ptr %11) #11
  call void @llvm.lifetime.end.p0(i64 4, ptr %10) #11
  %46 = load float, ptr %5, align 4
  ret float %46
}