; Function Attrs: mustprogress uwtable
define noundef float @_Z27xdr_xtc_get_last_frame_timeP8_IO_FILEP3XDRiPb(ptr noundef %0, ptr noundef %1, i32 noundef %2, ptr noundef captures(none) initializes((0, 1)) %3) local_unnamed_addr #3 {
  store i8 1, ptr %3, align 1, !tbaa !56
  %5 = tail call noundef i64 @_Z9gmx_ftellP8_IO_FILE(ptr noundef %0)
  %6 = icmp slt i64 %5, 0
  br i1 %6, label %.sink.split, label %7

7:                                                ; preds = %4
  %8 = tail call noundef i32 @_Z9gmx_fseekP8_IO_FILEli(ptr noundef %0, i64 noundef -12, i32 noundef 2)
  %.not = icmp eq i32 %8, 0
  br i1 %.not, label %9, label %.sink.split

9:                                                ; preds = %7
  %10 = tail call fastcc noundef float @_ZL26xtc_get_current_frame_timeP8_IO_FILEP3XDRiPb(ptr noundef %0, ptr noundef %1, i32 noundef %2, ptr noundef nonnull %3)
  %11 = load i8, ptr %3, align 1, !tbaa !56, !range !58, !noundef !59
  %12 = trunc nuw i8 %11 to i1
  br i1 %12, label %13, label %15

13:                                               ; preds = %9
  %14 = tail call noundef i32 @_Z9gmx_fseekP8_IO_FILEli(ptr noundef %0, i64 noundef %5, i32 noundef 0)
  %.not16 = icmp eq i32 %14, 0
  br i1 %.not16, label %15, label %.sink.split

.sink.split:                                      ; preds = %13, %7, %4
  store i8 0, ptr %3, align 1, !tbaa !56
  br label %15

15:                                               ; preds = %.sink.split, %13, %9
  %.0 = phi float [ -1.000000e+00, %9 ], [ %10, %13 ], [ -1.000000e+00, %.sink.split ]
  ret float %.0
}